; Function Attrs: nofree norecurse nosync nounwind memory(read, argmem: readwrite, inaccessiblemem: none) uwtable
define range(i32 0, 2) i32 @ff_opus_rc_dec_log(ptr noundef captures(none) %0, i32 noundef %1) local_unnamed_addr #0 {
  %3 = getelementptr inbounds nuw i8, ptr %0, i64 56
  %4 = load i32, ptr %3, align 8, !tbaa !8
  %5 = lshr i32 %4, %1
  %6 = getelementptr inbounds nuw i8, ptr %0, i64 60
  %7 = load i32, ptr %6, align 4, !tbaa !15
  %.not = icmp ult i32 %7, %5
  br i1 %.not, label %11, label %8

8:                                                ; preds = %2
  %9 = sub nuw i32 %7, %5
  store i32 %9, ptr %6, align 4, !tbaa !15
  %10 = sub i32 %4, %5
  br label %11

11:                                               ; preds = %2, %8
  %.promoted = phi i32 [ %9, %8 ], [ %7, %2 ]
  %storemerge = phi i32 [ %10, %8 ], [ %5, %2 ]
  %.0 = phi i32 [ 0, %8 ], [ 1, %2 ]
  store i32 %storemerge, ptr %3, align 8, !tbaa !8
  %12 = icmp ult i32 %storemerge, 8388609
  br i1 %12, label %.lr.ph, label %opus_rc_dec_normalize.exit

.lr.ph:                                           ; preds = %11
  %13 = getelementptr inbounds nuw i8, ptr %0, i64 16
  %14 = getelementptr inbounds nuw i8, ptr %0, i64 24
  %15 = load i32, ptr %14, align 8, !tbaa !18
  %16 = load ptr, ptr %0, align 8, !tbaa !19
  %17 = getelementptr inbounds nuw i8, ptr %0, i64 64
  %.promoted13 = load i32, ptr %13, align 8, !tbaa !20
  %.promoted14 = load i32, ptr %17, align 8, !tbaa !21
  br label %18

18:                                               ; preds = %.lr.ph, %18
  %19 = phi i32 [ %.promoted14, %.lr.ph ], [ %37, %18 ]
  %20 = phi i32 [ %.promoted13, %.lr.ph ], [ %33, %18 ]
  %21 = phi i32 [ %.promoted, %.lr.ph ], [ %35, %18 ]
  %22 = phi i32 [ %storemerge, %.lr.ph ], [ %36, %18 ]
  %23 = shl i32 %21, 8
  %24 = lshr i32 %20, 3
  %25 = zext nneg i32 %24 to i64
  %26 = getelementptr inbounds nuw i8, ptr %16, i64 %25
  %27 = load i32, ptr %26, align 1, !tbaa !22
  %28 = tail call i32 @llvm.bswap.i32(i32 %27)
  %29 = and i32 %20, 7
  %30 = shl i32 %28, %29
  %31 = lshr i32 %30, 24
  %32 = add i32 %20, 8
  %33 = tail call i32 @llvm.umin.i32(i32 %15, i32 %32)
  store i32 %33, ptr %13, align 8, !tbaa !20
  %.masked.i = and i32 %23, 2147483392
  %34 = or disjoint i32 %31, %.masked.i
  %35 = xor i32 %34, 255
  store i32 %35, ptr %6, align 4, !tbaa !15
  %36 = shl nuw i32 %22, 8
  store i32 %36, ptr %3, align 8, !tbaa !8
  %37 = add i32 %19, 8
  store i32 %37, ptr %17, align 8, !tbaa !21
  %38 = icmp ult i32 %22, 32769
  br i1 %38, label %18, label %opus_rc_dec_normalize.exit, !llvm.loop !23

opus_rc_dec_normalize.exit:                       ; preds = %18, %11
  ret i32 %.0
}